; Function Attrs: nounwind uwtable
define void @zend_ini_deactivate() local_unnamed_addr #0 {
  %1 = load ptr, ptr getelementptr inbounds (%struct._zend_executor_globals, ptr @executor_globals, i64 0, i32 47), align 8
  %.not = icmp eq ptr %1, null
  br i1 %.not, label %22, label %2

2:                                                ; preds = %0
  %3 = getelementptr inbounds i8, ptr %1, i64 16
  %4 = load ptr, ptr %3, align 8
  %5 = getelementptr inbounds i8, ptr %1, i64 24
  %6 = load i32, ptr %5, align 8
  %7 = zext i32 %6 to i64
  %8 = getelementptr inbounds %struct._Bucket, ptr %4, i64 %7
  %9 = getelementptr inbounds i8, ptr %1, i64 8
  %10 = load i32, ptr %9, align 8
  %11 = and i32 %10, 4
  %.not13 = icmp eq i32 %11, 0
  tail call void @llvm.assume(i1 %.not13)
  %.not1415 = icmp eq i32 %6, 0
  br i1 %.not1415, label %._crit_edge, label %.lr.ph

.lr.ph:                                           ; preds = %2, %18
  %.016 = phi ptr [ %19, %18 ], [ %4, %2 ]
  %12 = getelementptr inbounds i8, ptr %.016, i64 8
  %13 = load i8, ptr %12, align 8
  %14 = icmp eq i8 %13, 0
  br i1 %14, label %18, label %15

15:                                               ; preds = %.lr.ph
  %16 = load ptr, ptr %.016, align 8
  %17 = tail call fastcc i32 @zend_restore_ini_entry_cb(ptr noundef %16, i32 noundef 8), !range !4
  br label %18

18:                                               ; preds = %.lr.ph, %15
  %19 = getelementptr inbounds i8, ptr %.016, i64 32
  %.not14 = icmp eq ptr %19, %8
  br i1 %.not14, label %._crit_edge.loopexit, label %.lr.ph

._crit_edge.loopexit:                             ; preds = %18
  %.pre = load ptr, ptr getelementptr inbounds (%struct._zend_executor_globals, ptr @executor_globals, i64 0, i32 47), align 8
  br label %._crit_edge

._crit_edge:                                      ; preds = %._crit_edge.loopexit, %2
  %20 = phi ptr [ %.pre, %._crit_edge.loopexit ], [ %1, %2 ]
  tail call void @zend_hash_destroy(ptr noundef %20) #20
  %21 = load ptr, ptr getelementptr inbounds (%struct._zend_executor_globals, ptr @executor_globals, i64 0, i32 47), align 8
  tail call void @_efree_56(ptr noundef %21) #20
  store ptr null, ptr getelementptr inbounds (%struct._zend_executor_globals, ptr @executor_globals, i64 0, i32 47), align 8
  br label %22

22:                                               ; preds = %._crit_edge, %0
  ret void
}